target datalayout = "e-m:e-p270:32:32-p271:32:32-p272:64:64-i64:64-i128:128-f80:128-n8:16:32:64-S128"
target triple = "x86_64-pc-linux-gnu"

%struct.print_stream_ops = type { ptr, ptr, ptr, ptr, ptr, ptr, ptr }
%struct.print_stream = type { ptr, ptr }

; Function Attrs: null_pointer_is_valid sspstrong uwtable
define zeroext i1 @destroy_print_stream(ptr noundef %0) #0 {
  %2 = alloca ptr, align 8
  store ptr %0, ptr %2, align 8
  %3 = load ptr, ptr %2, align 8
  %4 = icmp ne ptr %3, null
  br i1 %4, label %5, label %26

5:                                                ; preds = %1
  %6 = load ptr, ptr %2, align 8
  %7 = getelementptr inbounds nuw %struct.print_stream, ptr %6, i32 0, i32 0
  %8 = load ptr, ptr %7, align 8
  %9 = icmp ne ptr %8, null
  br i1 %9, label %10, label %26

10:                                               ; preds = %5
  %11 = load ptr, ptr %2, align 8
  %12 = getelementptr inbounds nuw %struct.print_stream, ptr %11, i32 0, i32 0
  %13 = load ptr, ptr %12, align 8
  %14 = getelementptr inbounds nuw %struct.print_stream_ops, ptr %13, i32 0, i32 6
  %15 = load ptr, ptr %14, align 8
  %16 = icmp ne ptr %15, null
  br i1 %16, label %17, label %26

17:                                               ; preds = %10
  %18 = load ptr, ptr %2, align 8
  %19 = getelementptr inbounds nuw %struct.print_stream, ptr %18, i32 0, i32 0
  %20 = load ptr, ptr %19, align 8
  %21 = getelementptr inbounds nuw %struct.print_stream_ops, ptr %20, i32 0, i32 6
  %22 = load ptr, ptr %21, align 8
  %23 = load ptr, ptr %2, align 8
  %24 = call zeroext i1 %22(ptr noundef %23)
  %25 = zext i1 %24 to i32
  br label %27

26:                                               ; preds = %10, %5, %1
  br label %27

27:                                               ; preds = %26, %17
  %28 = phi i32 [ %25, %17 ], [ 1, %26 ]
  %29 = icmp ne i32 %28, 0
  ret i1 %29
}