; Function Attrs: null_pointer_is_valid sspstrong uwtable
define zeroext i1 @destroy_print_stream(ptr noundef %0) local_unnamed_addr #0 {
  %.not = icmp eq ptr %0, null
  br i1 %.not, label %9, label %2

2:                                                ; preds = %1
  %3 = load ptr, ptr %0, align 8
  %.not7 = icmp eq ptr %3, null
  br i1 %.not7, label %9, label %4

4:                                                ; preds = %2
  %5 = getelementptr inbounds nuw i8, ptr %3, i64 48
  %6 = load ptr, ptr %5, align 8
  %.not8 = icmp eq ptr %6, null
  br i1 %.not8, label %9, label %7

7:                                                ; preds = %4
  %8 = tail call zeroext i1 %6(ptr noundef nonnull %0)
  br label %9

9:                                                ; preds = %1, %2, %4, %7
  %10 = phi i1 [ %8, %7 ], [ true, %4 ], [ true, %2 ], [ true, %1 ]
  ret i1 %10
}